target datalayout = "e-m:e-p270:32:32-p271:32:32-p272:64:64-i64:64-i128:128-f80:128-n8:16:32:64-S128"
target triple = "x86_64-pc-linux-gnu"

%struct._exr_decode_pipeline = type { i64, ptr, i16, i16, i32, ptr, %struct.exr_chunk_info_t, i32, i32, i64, ptr, ptr, i64, ptr, i64, ptr, i64, ptr, i64, ptr, i64, ptr, i64, ptr, ptr, ptr, ptr, ptr, ptr, [5 x %struct.exr_coding_channel_info_t] }
%struct.exr_chunk_info_t = type { i32, i32, i32, i32, i32, i8, i8, i8, i8, i64, i64, i64, i64, i64 }
%struct.exr_coding_channel_info_t = type { ptr, i32, i32, i32, i32, i8, i8, i16, i16, i16, i32, i32, %union.anon }
%union.anon = type { ptr }

; Function Attrs: nounwind uwtable
define internal i32 @update_pack_unpack_ptrs(ptr noundef %0) #0 {
  %2 = alloca i32, align 4
  %3 = alloca ptr, align 8
  %4 = alloca i32, align 4
  %5 = alloca i32, align 4
  %6 = alloca i64, align 8
  %7 = alloca i32, align 4
  store ptr %0, ptr %3, align 8, !tbaa !11
  call void @llvm.lifetime.start.p0(i64 4, ptr %4) #6
  call void @llvm.lifetime.start.p0(i64 4, ptr %5) #6
  %8 = load ptr, ptr %3, align 8, !tbaa !11
  %9 = getelementptr inbounds nuw %struct._exr_decode_pipeline, ptr %8, i32 0, i32 6
  %10 = getelementptr inbounds nuw %struct.exr_chunk_info_t, ptr %9, i32 0, i32 7
  %11 = load i8, ptr %10, align 2, !tbaa !90
  %12 = zext i8 %11 to i32
  store i32 %12, ptr %5, align 4, !tbaa !8
  %13 = load i32, ptr %5, align 4, !tbaa !8
  %14 = icmp eq i32 %13, 2
  br i1 %14, label %18, label %15

15:                                               ; preds = %1
  %16 = load i32, ptr %5, align 4, !tbaa !8
  %17 = icmp eq i32 %16, 3
  br i1 %17, label %18, label %84

18:                                               ; preds = %15, %1
  call void @llvm.lifetime.start.p0(i64 8, ptr %6) #6
  %19 = load ptr, ptr %3, align 8, !tbaa !11
  %20 = getelementptr inbounds nuw %struct._exr_decode_pipeline, ptr %19, i32 0, i32 6
  %21 = getelementptr inbounds nuw %struct.exr_chunk_info_t, ptr %20, i32 0, i32 4
  %22 = load i32, ptr %21, align 8, !tbaa !86
  %23 = sext i32 %22 to i64
  %24 = load ptr, ptr %3, align 8, !tbaa !11
  %25 = getelementptr inbounds nuw %struct._exr_decode_pipeline, ptr %24, i32 0, i32 6
  %26 = getelementptr inbounds nuw %struct.exr_chunk_info_t, ptr %25, i32 0, i32 3
  %27 = load i32, ptr %26, align 4, !tbaa !72
  %28 = sext i32 %27 to i64
  %29 = mul i64 %23, %28
  store i64 %29, ptr %6, align 8, !tbaa !32
  %30 = load ptr, ptr %3, align 8, !tbaa !11
  %31 = getelementptr inbounds nuw %struct._exr_decode_pipeline, ptr %30, i32 0, i32 3
  %32 = load i16, ptr %31, align 2, !tbaa !82
  %33 = zext i16 %32 to i32
  %34 = and i32 %33, 1
  %35 = icmp ne i32 %34, 0
  br i1 %35, label %36, label %39

36:                                               ; preds = %18
  %37 = load i64, ptr %6, align 8, !tbaa !32
  %38 = add i64 %37, 1
  store i64 %38, ptr %6, align 8, !tbaa !32
  br label %39

39:                                               ; preds = %36, %18
  %40 = load i64, ptr %6, align 8, !tbaa !32
  %41 = mul i64 %40, 4
  store i64 %41, ptr %6, align 8, !tbaa !32
  %42 = load ptr, ptr %3, align 8, !tbaa !11
  %43 = getelementptr inbounds nuw %struct._exr_decode_pipeline, ptr %42, i32 0, i32 6
  %44 = getelementptr inbounds nuw %struct.exr_chunk_info_t, ptr %43, i32 0, i32 13
  %45 = load i64, ptr %44, align 8, !tbaa !81
  %46 = load i64, ptr %6, align 8, !tbaa !32
  %47 = icmp eq i64 %45, %46
  br i1 %47, label %48, label %60

48:                                               ; preds = %39
  %49 = load ptr, ptr %3, align 8, !tbaa !11
  %50 = load ptr, ptr %3, align 8, !tbaa !11
  %51 = getelementptr inbounds nuw %struct._exr_decode_pipeline, ptr %50, i32 0, i32 17
  %52 = load ptr, ptr %3, align 8, !tbaa !11
  %53 = getelementptr inbounds nuw %struct._exr_decode_pipeline, ptr %52, i32 0, i32 18
  %54 = call i32 @internal_decode_free_buffer(ptr noundef %49, i32 noundef 6, ptr noundef %51, ptr noundef %53)
  %55 = load ptr, ptr %3, align 8, !tbaa !11
  %56 = getelementptr inbounds nuw %struct._exr_decode_pipeline, ptr %55, i32 0, i32 15
  %57 = load ptr, ptr %56, align 8, !tbaa !83
  %58 = load ptr, ptr %3, align 8, !tbaa !11
  %59 = getelementptr inbounds nuw %struct._exr_decode_pipeline, ptr %58, i32 0, i32 17
  store ptr %57, ptr %59, align 8, !tbaa !85
  store i32 0, ptr %4, align 4, !tbaa !8
  br label %68

60:                                               ; preds = %39
  %61 = load ptr, ptr %3, align 8, !tbaa !11
  %62 = load ptr, ptr %3, align 8, !tbaa !11
  %63 = getelementptr inbounds nuw %struct._exr_decode_pipeline, ptr %62, i32 0, i32 17
  %64 = load ptr, ptr %3, align 8, !tbaa !11
  %65 = getelementptr inbounds nuw %struct._exr_decode_pipeline, ptr %64, i32 0, i32 18
  %66 = load i64, ptr %6, align 8, !tbaa !32
  %67 = call i32 @internal_decode_alloc_buffer(ptr noundef %61, i32 noundef 6, ptr noundef %63, ptr noundef %65, i64 noundef %66)
  store i32 %67, ptr %4, align 4, !tbaa !8
  br label %68

68:                                               ; preds = %60, %48
  %69 = load i32, ptr %4, align 4, !tbaa !8
  %70 = icmp ne i32 %69, 0
  br i1 %70, label %78, label %71

71:                                               ; preds = %68
  %72 = load ptr, ptr %3, align 8, !tbaa !11
  %73 = getelementptr inbounds nuw %struct._exr_decode_pipeline, ptr %72, i32 0, i32 3
  %74 = load i16, ptr %73, align 2, !tbaa !82
  %75 = zext i16 %74 to i32
  %76 = and i32 %75, 4
  %77 = icmp ne i32 %76, 0
  br i1 %77, label %78, label %80

78:                                               ; preds = %71, %68
  %79 = load i32, ptr %4, align 4, !tbaa !8
  store i32 %79, ptr %2, align 4
  store i32 1, ptr %7, align 4
  br label %81

80:                                               ; preds = %71
  store i32 0, ptr %7, align 4
  br label %81

81:                                               ; preds = %80, %78
  call void @llvm.lifetime.end.p0(i64 8, ptr %6) #6
  %82 = load i32, ptr %7, align 4
  switch i32 %82, label %119 [
    i32 0, label %83
  ]

83:                                               ; preds = %81
  br label %84

84:                                               ; preds = %83, %15
  %85 = load ptr, ptr %3, align 8, !tbaa !11
  %86 = getelementptr inbounds nuw %struct._exr_decode_pipeline, ptr %85, i32 0, i32 6
  %87 = getelementptr inbounds nuw %struct.exr_chunk_info_t, ptr %86, i32 0, i32 10
  %88 = load i64, ptr %87, align 8, !tbaa !84
  %89 = load ptr, ptr %3, align 8, !tbaa !11
  %90 = getelementptr inbounds nuw %struct._exr_decode_pipeline, ptr %89, i32 0, i32 6
  %91 = getelementptr inbounds nuw %struct.exr_chunk_info_t, ptr %90, i32 0, i32 11
  %92 = load i64, ptr %91, align 8, !tbaa !89
  %93 = icmp eq i64 %88, %92
  br i1 %93, label %94, label %106

94:                                               ; preds = %84
  %95 = load ptr, ptr %3, align 8, !tbaa !11
  %96 = load ptr, ptr %3, align 8, !tbaa !11
  %97 = getelementptr inbounds nuw %struct._exr_decode_pipeline, ptr %96, i32 0, i32 13
  %98 = load ptr, ptr %3, align 8, !tbaa !11
  %99 = getelementptr inbounds nuw %struct._exr_decode_pipeline, ptr %98, i32 0, i32 14
  %100 = call i32 @internal_decode_free_buffer(ptr noundef %95, i32 noundef 1, ptr noundef %97, ptr noundef %99)
  %101 = load ptr, ptr %3, align 8, !tbaa !11
  %102 = getelementptr inbounds nuw %struct._exr_decode_pipeline, ptr %101, i32 0, i32 11
  %103 = load ptr, ptr %102, align 8, !tbaa !79
  %104 = load ptr, ptr %3, align 8, !tbaa !11
  %105 = getelementptr inbounds nuw %struct._exr_decode_pipeline, ptr %104, i32 0, i32 13
  store ptr %103, ptr %105, align 8, !tbaa !78
  store i32 0, ptr %4, align 4, !tbaa !8
  br label %117

106:                                              ; preds = %84
  %107 = load ptr, ptr %3, align 8, !tbaa !11
  %108 = load ptr, ptr %3, align 8, !tbaa !11
  %109 = getelementptr inbounds nuw %struct._exr_decode_pipeline, ptr %108, i32 0, i32 13
  %110 = load ptr, ptr %3, align 8, !tbaa !11
  %111 = getelementptr inbounds nuw %struct._exr_decode_pipeline, ptr %110, i32 0, i32 14
  %112 = load ptr, ptr %3, align 8, !tbaa !11
  %113 = getelementptr inbounds nuw %struct._exr_decode_pipeline, ptr %112, i32 0, i32 6
  %114 = getelementptr inbounds nuw %struct.exr_chunk_info_t, ptr %113, i32 0, i32 11
  %115 = load i64, ptr %114, align 8, !tbaa !89
  %116 = call i32 @internal_decode_alloc_buffer(ptr noundef %107, i32 noundef 1, ptr noundef %109, ptr noundef %111, i64 noundef %115)
  store i32 %116, ptr %4, align 4, !tbaa !8
  br label %117

117:                                              ; preds = %106, %94
  %118 = load i32, ptr %4, align 4, !tbaa !8
  store i32 %118, ptr %2, align 4
  store i32 1, ptr %7, align 4
  br label %119

119:                                              ; preds = %117, %81
  call void @llvm.lifetime.end.p0(i64 4, ptr %5) #6
  call void @llvm.lifetime.end.p0(i64 4, ptr %4) #6
  %120 = load i32, ptr %2, align 4
  ret i32 %120
}