; Function Attrs: nounwind uwtable
define internal fastcc i32 @update_pack_unpack_ptrs(ptr noundef nonnull %0) unnamed_addr #0 {
  %2 = getelementptr inbounds nuw i8, ptr %0, i64 54
  %3 = load i8, ptr %2, align 2, !tbaa !82
  %4 = and i8 %3, -2
  %or.cond = icmp eq i8 %4, 2
  br i1 %or.cond, label %5, label %.critedge

5:                                                ; preds = %1
  %6 = getelementptr inbounds nuw i8, ptr %0, i64 48
  %7 = load i32, ptr %6, align 8, !tbaa !78
  %8 = sext i32 %7 to i64
  %9 = getelementptr inbounds nuw i8, ptr %0, i64 44
  %10 = load i32, ptr %9, align 4, !tbaa !64
  %11 = sext i32 %10 to i64
  %12 = mul nsw i64 %11, %8
  %13 = getelementptr inbounds nuw i8, ptr %0, i64 18
  %14 = load i16, ptr %13, align 2, !tbaa !74
  %15 = and i16 %14, 1
  %16 = zext nneg i16 %15 to i64
  %spec.select = add nsw i64 %12, %16
  %17 = shl i64 %spec.select, 2
  %18 = getelementptr inbounds nuw i8, ptr %0, i64 88
  %19 = load i64, ptr %18, align 8, !tbaa !73
  %20 = icmp eq i64 %19, %17
  %21 = getelementptr inbounds nuw i8, ptr %0, i64 168
  %22 = getelementptr inbounds nuw i8, ptr %0, i64 176
  br i1 %20, label %.thread, label %26

.thread:                                          ; preds = %5
  %23 = tail call i32 @internal_decode_free_buffer(ptr noundef nonnull %0, i32 noundef 6, ptr noundef nonnull %21, ptr noundef nonnull %22) #5
  %24 = getelementptr inbounds nuw i8, ptr %0, i64 152
  %25 = load ptr, ptr %24, align 8, !tbaa !75
  store ptr %25, ptr %21, align 8, !tbaa !77
  br label %28

26:                                               ; preds = %5
  %27 = tail call i32 @internal_decode_alloc_buffer(ptr noundef nonnull %0, i32 noundef 6, ptr noundef nonnull %21, ptr noundef nonnull %22, i64 noundef %17) #5
  %.not42 = icmp eq i32 %27, 0
  br i1 %.not42, label %28, label %44

28:                                               ; preds = %.thread, %26
  %29 = load i16, ptr %13, align 2, !tbaa !74
  %30 = and i16 %29, 4
  %.not43 = icmp eq i16 %30, 0
  br i1 %.not43, label %.critedge, label %44

.critedge:                                        ; preds = %28, %1
  %31 = getelementptr inbounds nuw i8, ptr %0, i64 64
  %32 = load i64, ptr %31, align 8, !tbaa !76
  %33 = getelementptr inbounds nuw i8, ptr %0, i64 72
  %34 = load i64, ptr %33, align 8, !tbaa !81
  %35 = icmp eq i64 %32, %34
  %36 = getelementptr inbounds nuw i8, ptr %0, i64 136
  %37 = getelementptr inbounds nuw i8, ptr %0, i64 144
  br i1 %35, label %38, label %42

38:                                               ; preds = %.critedge
  %39 = tail call i32 @internal_decode_free_buffer(ptr noundef nonnull %0, i32 noundef 1, ptr noundef nonnull %36, ptr noundef nonnull %37) #5
  %40 = getelementptr inbounds nuw i8, ptr %0, i64 120
  %41 = load ptr, ptr %40, align 8, !tbaa !71
  store ptr %41, ptr %36, align 8, !tbaa !70
  br label %44

42:                                               ; preds = %.critedge
  %43 = tail call i32 @internal_decode_alloc_buffer(ptr noundef nonnull %0, i32 noundef 1, ptr noundef nonnull %36, ptr noundef nonnull %37, i64 noundef %34) #5
  br label %44

44:                                               ; preds = %38, %42, %28, %26
  %.1 = phi i32 [ %27, %26 ], [ 0, %28 ], [ 0, %38 ], [ %43, %42 ]
  ret i32 %.1
}